(dp1
S'plug_plugins_id'
p2
(dp3
S'type'
p4
S'integer'
p5
sS'sortable'
p6
I2
sS'sql'
p7
S'INTEGER'
p8
ssS'auth_group_id'
p9
(dp10
g4
g5
sg6
I3
sg7
S'INTEGER'
p11
ssS'id'
p12
(dp13
g4
S'id'
p14
sg6
I1
sg7
S'INTEGER PRIMARY KEY AUTOINCREMENT'
p15
ss.