(dp1
S'reset_password_key'
p2
S'CHAR(512)'
p3
sS'first_name'
p4
S'CHAR(128)'
p5
sS'last_name'
p6
S'CHAR(128)'
p7
sS'site_language'
p8
S'CHAR(128)'
p9
sS'created_on'
p10
S'TIMESTAMP'
p11
sS'registration_id'
p12
S'CHAR(512)'
p13
sS'password'
p14
S'CHAR(512)'
p15
sS'registration_key'
p16
S'CHAR(512)'
p17
sS'email'
p18
S'CHAR(512)'
p19
sS'id'
p20
S'INTEGER PRIMARY KEY AUTOINCREMENT'
p21
s.