(dp1
S'created_on'
p2
S'TIMESTAMP'
p3
sS'created_by'
p4
S'INTEGER REFERENCES auth_user(id) ON DELETE CASCADE'
p5
sS'id'
p6
S'INTEGER PRIMARY KEY AUTOINCREMENT'
p7
sS'links'
p8
S'INTEGER'
p9
sS'name'
p10
S'CHAR(512)'
p11
s.