(dp1
S'plug_icono'
p2
S'CHAR(512)'
p3
sS'plug_nombre'
p4
S'CHAR(512)'
p5
sS'plug_autor'
p6
S'CHAR(512)'
p7
sS'plug_enlace'
p8
S'CHAR(512)'
p9
sS'plug_nombplugin'
p10
S'CHAR(512)'
p11
sS'plug_version'
p12
S'CHAR(512)'
p13
sS'plug_fecha'
p14
S'TIMESTAMP'
p15
sS'plug_descripcion'
p16
S'CHAR(512)'
p17
sS'plug_prevplugins'
p18
S'TEXT'
p19
sS'plug_tab'
p20
S'CHAR(512)'
p21
sS'id'
p22
S'INTEGER PRIMARY KEY AUTOINCREMENT'
p23
sS'plug_tip'
p24
S'CHAR(512)'
p25
s.